target datalayout = "e-m:e-p270:32:32-p271:32:32-p272:64:64-i64:64-i128:128-f80:128-n8:16:32:64-S128"
target triple = "x86_64-pc-linux-gnu"

%"class.icu_77::RBBINode" = type { i32, ptr, ptr, ptr, ptr, i32, %"class.icu_77::UnicodeString", i32, i32, i8, i32, i8, i8, i8, ptr, ptr, ptr }
%"class.icu_77::UnicodeString" = type { %"class.icu_77::Replaceable", %"union.icu_77::UnicodeString::StackBufferOrFields" }
%"class.icu_77::Replaceable" = type { %"class.icu_77::UObject" }
%"class.icu_77::UObject" = type { ptr }
%"union.icu_77::UnicodeString::StackBufferOrFields" = type { %struct.anon.0, [32 x i8] }
%struct.anon.0 = type { i16, i32, i32, ptr }
%struct.anon = type { i16, [27 x i16] }

@_ZTVN6icu_777UObjectE = available_externally unnamed_addr constant { [5 x ptr] } { [5 x ptr] [ptr null, ptr @_ZTIN6icu_777UObjectE, ptr @_ZN6icu_777UObjectD1Ev, ptr @_ZN6icu_777UObjectD0Ev, ptr @_ZNK6icu_777UObject17getDynamicClassIDEv] }, align 8

; Function Attrs: inlinehint mustprogress nounwind uwtable
define linkonce_odr void @_ZN6icu_777UObjectC2Ev(ptr noundef nonnull align 8 dereferenceable(8) %0) unnamed_addr #2 comdat align 2 {
  %2 = alloca ptr, align 8
  store ptr %0, ptr %2, align 8, !tbaa !60
  %3 = load ptr, ptr %2, align 8
  store ptr getelementptr inbounds inrange(-16, 24) ({ [5 x ptr] }, ptr @_ZTVN6icu_777UObjectE, i32 0, i32 0, i32 2), ptr %3, align 8, !tbaa !52
  ret void
}

; Function Attrs: inlinehint mustprogress nounwind uwtable
define linkonce_odr void @_ZN6icu_7711ReplaceableC2Ev(ptr noundef nonnull align 8 dereferenceable(8) %0) unnamed_addr #2 comdat align 2 {
  %2 = alloca ptr, align 8
  store ptr %0, ptr %2, align 8, !tbaa !58
  %3 = load ptr, ptr %2, align 8
  call void @_ZN6icu_777UObjectC2Ev(ptr noundef nonnull align 8 dereferenceable(8) %3) #10
  store ptr getelementptr inbounds inrange(-16, 88) ({ [13 x ptr] }, ptr @_ZTVN6icu_7711ReplaceableE, i32 0, i32 0, i32 2), ptr %3, align 8, !tbaa !52
  ret void
}

; Function Attrs: inlinehint mustprogress nounwind uwtable
define internal noundef signext i8 @_ZL9U_SUCCESS10UErrorCode(i32 noundef %0) #2 {
  %2 = alloca i32, align 4
  store i32 %0, ptr %2, align 4, !tbaa !15
  %3 = load i32, ptr %2, align 4, !tbaa !15
  %4 = icmp sle i32 %3, 0
  %5 = zext i1 %4 to i8
  ret i8 %5
}

; Function Attrs: inlinehint mustprogress nounwind uwtable
define internal noundef signext i8 @_ZL9U_FAILURE10UErrorCode(i32 noundef %0) #2 {
  %2 = alloca i32, align 4
  store i32 %0, ptr %2, align 4, !tbaa !15
  %3 = load i32, ptr %2, align 4, !tbaa !15
  %4 = icmp sgt i32 %3, 0
  %5 = zext i1 %4 to i8
  ret i8 %5
}

; Function Attrs: inlinehint mustprogress uwtable
define linkonce_odr void @_ZN6icu_7713UnicodeStringC2Ev(ptr noundef nonnull align 8 dereferenceable(64) %0) unnamed_addr #3 comdat align 2 {
  %2 = alloca ptr, align 8
  store ptr %0, ptr %2, align 8, !tbaa !50
  %3 = load ptr, ptr %2, align 8
  call void @_ZN6icu_7711ReplaceableC2Ev(ptr noundef nonnull align 8 dereferenceable(8) %3)
  store ptr getelementptr inbounds inrange(-16, 88) ({ [13 x ptr] }, ptr @_ZTVN6icu_7713UnicodeStringE, i32 0, i32 0, i32 2), ptr %3, align 8, !tbaa !52
  %4 = getelementptr inbounds nuw %"class.icu_77::UnicodeString", ptr %3, i32 0, i32 1
  %5 = getelementptr inbounds nuw %struct.anon, ptr %4, i32 0, i32 0
  store i16 2, ptr %5, align 8, !tbaa !54
  ret void
}

; Function Attrs: mustprogress uwtable
define void @_ZN6icu_778RBBINodeC2ERKS0_R10UErrorCode(ptr noundef nonnull align 8 dereferenceable(160) %0, ptr noundef nonnull align 8 dereferenceable(160) %1, ptr noundef nonnull align 4 dereferenceable(4) %2) unnamed_addr #1 align 2 personality ptr @__gxx_personality_v0 {
  %4 = alloca ptr, align 8
  %5 = alloca ptr, align 8
  %6 = alloca ptr, align 8
  %7 = alloca ptr, align 8
  %8 = alloca i32, align 4
  %9 = alloca ptr, align 8
  %10 = alloca i1, align 1
  %11 = alloca ptr, align 8
  %12 = alloca i1, align 1
  %13 = alloca ptr, align 8
  %14 = alloca i1, align 1
  store ptr %0, ptr %4, align 8, !tbaa !23
  store ptr %1, ptr %5, align 8, !tbaa !23
  store ptr %2, ptr %6, align 8, !tbaa !22
  %15 = load ptr, ptr %4, align 8
  %16 = getelementptr inbounds nuw %"class.icu_77::RBBINode", ptr %15, i32 0, i32 6
  call void @_ZN6icu_7713UnicodeStringC2Ev(ptr noundef nonnull align 8 dereferenceable(64) %16)
  %17 = load ptr, ptr %6, align 8, !tbaa !22
  %18 = load i32, ptr %17, align 4, !tbaa !15
  %19 = invoke noundef signext i8 @_ZL9U_FAILURE10UErrorCode(i32 noundef %18)
          to label %20 unwind label %23

20:                                               ; preds = %3
  %21 = icmp ne i8 %19, 0
  br i1 %21, label %22, label %27

22:                                               ; preds = %20
  br label %136

23:                                               ; preds = %90, %27, %3
  %24 = landingpad { ptr, i32 }
          cleanup
  %25 = extractvalue { ptr, i32 } %24, 0
  store ptr %25, ptr %7, align 8
  %26 = extractvalue { ptr, i32 } %24, 1
  store i32 %26, ptr %8, align 4
  br label %137

27:                                               ; preds = %20
  %28 = load ptr, ptr %5, align 8, !tbaa !23
  %29 = getelementptr inbounds nuw %"class.icu_77::RBBINode", ptr %28, i32 0, i32 0
  %30 = load i32, ptr %29, align 8, !tbaa !27
  %31 = getelementptr inbounds nuw %"class.icu_77::RBBINode", ptr %15, i32 0, i32 0
  store i32 %30, ptr %31, align 8, !tbaa !27
  %32 = getelementptr inbounds nuw %"class.icu_77::RBBINode", ptr %15, i32 0, i32 1
  store ptr null, ptr %32, align 8, !tbaa !35
  %33 = getelementptr inbounds nuw %"class.icu_77::RBBINode", ptr %15, i32 0, i32 2
  store ptr null, ptr %33, align 8, !tbaa !36
  %34 = getelementptr inbounds nuw %"class.icu_77::RBBINode", ptr %15, i32 0, i32 3
  store ptr null, ptr %34, align 8, !tbaa !37
  %35 = load ptr, ptr %5, align 8, !tbaa !23
  %36 = getelementptr inbounds nuw %"class.icu_77::RBBINode", ptr %35, i32 0, i32 4
  %37 = load ptr, ptr %36, align 8, !tbaa !38
  %38 = getelementptr inbounds nuw %"class.icu_77::RBBINode", ptr %15, i32 0, i32 4
  store ptr %37, ptr %38, align 8, !tbaa !38
  %39 = load ptr, ptr %5, align 8, !tbaa !23
  %40 = getelementptr inbounds nuw %"class.icu_77::RBBINode", ptr %39, i32 0, i32 5
  %41 = load i32, ptr %40, align 8, !tbaa !46
  %42 = getelementptr inbounds nuw %"class.icu_77::RBBINode", ptr %15, i32 0, i32 5
  store i32 %41, ptr %42, align 8, !tbaa !46
  %43 = load ptr, ptr %5, align 8, !tbaa !23
  %44 = getelementptr inbounds nuw %"class.icu_77::RBBINode", ptr %43, i32 0, i32 6
  %45 = getelementptr inbounds nuw %"class.icu_77::RBBINode", ptr %15, i32 0, i32 6
  %46 = invoke noundef nonnull align 8 dereferenceable(64) ptr @_ZN6icu_7713UnicodeStringaSERKS0_(ptr noundef nonnull align 8 dereferenceable(64) %45, ptr noundef nonnull align 8 dereferenceable(64) %44)
          to label %47 unwind label %23

47:                                               ; preds = %27
  %48 = load ptr, ptr %5, align 8, !tbaa !23
  %49 = getelementptr inbounds nuw %"class.icu_77::RBBINode", ptr %48, i32 0, i32 7
  %50 = load i32, ptr %49, align 8, !tbaa !39
  %51 = getelementptr inbounds nuw %"class.icu_77::RBBINode", ptr %15, i32 0, i32 7
  store i32 %50, ptr %51, align 8, !tbaa !39
  %52 = load ptr, ptr %5, align 8, !tbaa !23
  %53 = getelementptr inbounds nuw %"class.icu_77::RBBINode", ptr %52, i32 0, i32 8
  %54 = load i32, ptr %53, align 4, !tbaa !40
  %55 = getelementptr inbounds nuw %"class.icu_77::RBBINode", ptr %15, i32 0, i32 8
  store i32 %54, ptr %55, align 4, !tbaa !40
  %56 = load ptr, ptr %5, align 8, !tbaa !23
  %57 = getelementptr inbounds nuw %"class.icu_77::RBBINode", ptr %56, i32 0, i32 9
  %58 = load i8, ptr %57, align 8, !tbaa !41
  %59 = getelementptr inbounds nuw %"class.icu_77::RBBINode", ptr %15, i32 0, i32 9
  store i8 %58, ptr %59, align 8, !tbaa !41
  %60 = load ptr, ptr %5, align 8, !tbaa !23
  %61 = getelementptr inbounds nuw %"class.icu_77::RBBINode", ptr %60, i32 0, i32 10
  %62 = load i32, ptr %61, align 4, !tbaa !45
  %63 = getelementptr inbounds nuw %"class.icu_77::RBBINode", ptr %15, i32 0, i32 10
  store i32 %62, ptr %63, align 4, !tbaa !45
  %64 = getelementptr inbounds nuw %"class.icu_77::RBBINode", ptr %15, i32 0, i32 12
  store i8 0, ptr %64, align 1, !tbaa !43
  %65 = load ptr, ptr %5, align 8, !tbaa !23
  %66 = getelementptr inbounds nuw %"class.icu_77::RBBINode", ptr %65, i32 0, i32 13
  %67 = load i8, ptr %66, align 2, !tbaa !44
  %68 = getelementptr inbounds nuw %"class.icu_77::RBBINode", ptr %15, i32 0, i32 13
  store i8 %67, ptr %68, align 2, !tbaa !44
  %69 = call noundef ptr @_ZN6icu_777UMemorynwEm(i64 noundef 40) #10
  %70 = icmp eq ptr %69, null
  store i1 false, ptr %10, align 1
  br i1 %70, label %74, label %71

71:                                               ; preds = %47
  store ptr %69, ptr %9, align 8
  store i1 true, ptr %10, align 1
  %72 = load ptr, ptr %6, align 8, !tbaa !22
  invoke void @_ZN6icu_777UVectorC1ER10UErrorCode(ptr noundef nonnull align 8 dereferenceable(40) %69, ptr noundef nonnull align 4 dereferenceable(4) %72)
          to label %73 unwind label %112

73:                                               ; preds = %71
  br label %74

74:                                               ; preds = %73, %47
  %75 = phi ptr [ %69, %73 ], [ null, %47 ]
  %76 = getelementptr inbounds nuw %"class.icu_77::RBBINode", ptr %15, i32 0, i32 14
  store ptr %75, ptr %76, align 8, !tbaa !47
  %77 = call noundef ptr @_ZN6icu_777UMemorynwEm(i64 noundef 40) #10
  %78 = icmp eq ptr %77, null
  store i1 false, ptr %12, align 1
  br i1 %78, label %82, label %79

79:                                               ; preds = %74
  store ptr %77, ptr %11, align 8
  store i1 true, ptr %12, align 1
  %80 = load ptr, ptr %6, align 8, !tbaa !22
  invoke void @_ZN6icu_777UVectorC1ER10UErrorCode(ptr noundef nonnull align 8 dereferenceable(40) %77, ptr noundef nonnull align 4 dereferenceable(4) %80)
          to label %81 unwind label %120

81:                                               ; preds = %79
  br label %82

82:                                               ; preds = %81, %74
  %83 = phi ptr [ %77, %81 ], [ null, %74 ]
  %84 = getelementptr inbounds nuw %"class.icu_77::RBBINode", ptr %15, i32 0, i32 15
  store ptr %83, ptr %84, align 8, !tbaa !48
  %85 = call noundef ptr @_ZN6icu_777UMemorynwEm(i64 noundef 40) #10
  %86 = icmp eq ptr %85, null
  store i1 false, ptr %14, align 1
  br i1 %86, label %90, label %87

87:                                               ; preds = %82
  store ptr %85, ptr %13, align 8
  store i1 true, ptr %14, align 1
  %88 = load ptr, ptr %6, align 8, !tbaa !22
  invoke void @_ZN6icu_777UVectorC1ER10UErrorCode(ptr noundef nonnull align 8 dereferenceable(40) %85, ptr noundef nonnull align 4 dereferenceable(4) %88)
          to label %89 unwind label %128

89:                                               ; preds = %87
  br label %90

90:                                               ; preds = %89, %82
  %91 = phi ptr [ %85, %89 ], [ null, %82 ]
  %92 = getelementptr inbounds nuw %"class.icu_77::RBBINode", ptr %15, i32 0, i32 16
  store ptr %91, ptr %92, align 8, !tbaa !49
  %93 = load ptr, ptr %6, align 8, !tbaa !22
  %94 = load i32, ptr %93, align 4, !tbaa !15
  %95 = invoke noundef signext i8 @_ZL9U_SUCCESS10UErrorCode(i32 noundef %94)
          to label %96 unwind label %23

96:                                               ; preds = %90
  %97 = icmp ne i8 %95, 0
  br i1 %97, label %98, label %136

98:                                               ; preds = %96
  %99 = getelementptr inbounds nuw %"class.icu_77::RBBINode", ptr %15, i32 0, i32 14
  %100 = load ptr, ptr %99, align 8, !tbaa !47
  %101 = icmp eq ptr %100, null
  br i1 %101, label %110, label %102

102:                                              ; preds = %98
  %103 = getelementptr inbounds nuw %"class.icu_77::RBBINode", ptr %15, i32 0, i32 15
  %104 = load ptr, ptr %103, align 8, !tbaa !48
  %105 = icmp eq ptr %104, null
  br i1 %105, label %110, label %106

106:                                              ; preds = %102
  %107 = getelementptr inbounds nuw %"class.icu_77::RBBINode", ptr %15, i32 0, i32 16
  %108 = load ptr, ptr %107, align 8, !tbaa !49
  %109 = icmp eq ptr %108, null
  br i1 %109, label %110, label %136

110:                                              ; preds = %106, %102, %98
  %111 = load ptr, ptr %6, align 8, !tbaa !22
  store i32 7, ptr %111, align 4, !tbaa !15
  br label %136

112:                                              ; preds = %71
  %113 = landingpad { ptr, i32 }
          cleanup
  %114 = extractvalue { ptr, i32 } %113, 0
  store ptr %114, ptr %7, align 8
  %115 = extractvalue { ptr, i32 } %113, 1
  store i32 %115, ptr %8, align 4
  %116 = load i1, ptr %10, align 1
  br i1 %116, label %117, label %119

117:                                              ; preds = %112
  %118 = load ptr, ptr %9, align 8
  call void @_ZN6icu_777UMemorydlEPv(ptr noundef %118) #10
  br label %119

119:                                              ; preds = %117, %112
  br label %137

120:                                              ; preds = %79
  %121 = landingpad { ptr, i32 }
          cleanup
  %122 = extractvalue { ptr, i32 } %121, 0
  store ptr %122, ptr %7, align 8
  %123 = extractvalue { ptr, i32 } %121, 1
  store i32 %123, ptr %8, align 4
  %124 = load i1, ptr %12, align 1
  br i1 %124, label %125, label %127

125:                                              ; preds = %120
  %126 = load ptr, ptr %11, align 8
  call void @_ZN6icu_777UMemorydlEPv(ptr noundef %126) #10
  br label %127

127:                                              ; preds = %125, %120
  br label %137

128:                                              ; preds = %87
  %129 = landingpad { ptr, i32 }
          cleanup
  %130 = extractvalue { ptr, i32 } %129, 0
  store ptr %130, ptr %7, align 8
  %131 = extractvalue { ptr, i32 } %129, 1
  store i32 %131, ptr %8, align 4
  %132 = load i1, ptr %14, align 1
  br i1 %132, label %133, label %135

133:                                              ; preds = %128
  %134 = load ptr, ptr %13, align 8
  call void @_ZN6icu_777UMemorydlEPv(ptr noundef %134) #10
  br label %135

135:                                              ; preds = %133, %128
  br label %137

136:                                              ; preds = %22, %110, %106, %96
  ret void

137:                                              ; preds = %135, %127, %119, %23
  call void @_ZN6icu_7713UnicodeStringD1Ev(ptr noundef nonnull align 8 dereferenceable(64) %16) #10
  br label %138

138:                                              ; preds = %137
  %139 = load ptr, ptr %7, align 8
  %140 = load i32, ptr %8, align 4
  %141 = insertvalue { ptr, i32 } poison, ptr %139, 0
  %142 = insertvalue { ptr, i32 } %141, i32 %140, 1
  resume { ptr, i32 } %142
}