; Function Attrs: mustprogress uwtable
define void @_ZN6icu_778RBBINodeC2ERKS0_R10UErrorCode(ptr noundef nonnull align 8 dereferenceable(160) initializes((48, 58)) %0, ptr noundef nonnull align 8 dereferenceable(160) %1, ptr noundef nonnull align 4 dereferenceable(4) %2) unnamed_addr #1 align 2 personality ptr @__gxx_personality_v0 {
  %4 = getelementptr inbounds nuw i8, ptr %0, i64 48
  store ptr getelementptr inbounds nuw inrange(-16, 88) (i8, ptr @_ZTVN6icu_7713UnicodeStringE, i64 16), ptr %4, align 8, !tbaa !15
  %5 = getelementptr inbounds nuw i8, ptr %0, i64 56
  store i16 2, ptr %5, align 8, !tbaa !17
  %6 = load i32, ptr %2, align 4, !tbaa !13
  %7 = icmp slt i32 %6, 1
  br i1 %7, label %10, label %67

8:                                                ; preds = %10
  %9 = landingpad { ptr, i32 }
          cleanup
  br label %68

10:                                               ; preds = %3
  %11 = load i32, ptr %1, align 8, !tbaa !18
  store i32 %11, ptr %0, align 8, !tbaa !18
  %12 = getelementptr inbounds nuw i8, ptr %0, i64 8
  %13 = getelementptr inbounds nuw i8, ptr %1, i64 32
  tail call void @llvm.memset.p0.i64(ptr noundef nonnull align 8 dereferenceable(24) %12, i8 0, i64 24, i1 false)
  %14 = load ptr, ptr %13, align 8, !tbaa !32
  %15 = getelementptr inbounds nuw i8, ptr %0, i64 32
  store ptr %14, ptr %15, align 8, !tbaa !32
  %16 = getelementptr inbounds nuw i8, ptr %1, i64 40
  %17 = load i32, ptr %16, align 8, !tbaa !31
  %18 = getelementptr inbounds nuw i8, ptr %0, i64 40
  store i32 %17, ptr %18, align 8, !tbaa !31
  %19 = getelementptr inbounds nuw i8, ptr %1, i64 48
  %20 = invoke noundef nonnull align 8 dereferenceable(64) ptr @_ZN6icu_7713UnicodeStringaSERKS0_(ptr noundef nonnull align 8 dereferenceable(64) %4, ptr noundef nonnull align 8 dereferenceable(64) %19)
          to label %21 unwind label %8

21:                                               ; preds = %10
  %22 = getelementptr inbounds nuw i8, ptr %1, i64 112
  %23 = load i32, ptr %22, align 8, !tbaa !33
  %24 = getelementptr inbounds nuw i8, ptr %0, i64 112
  store i32 %23, ptr %24, align 8, !tbaa !33
  %25 = getelementptr inbounds nuw i8, ptr %1, i64 116
  %26 = load i32, ptr %25, align 4, !tbaa !34
  %27 = getelementptr inbounds nuw i8, ptr %0, i64 116
  store i32 %26, ptr %27, align 4, !tbaa !34
  %28 = getelementptr inbounds nuw i8, ptr %1, i64 120
  %29 = load i8, ptr %28, align 8, !tbaa !35
  %30 = getelementptr inbounds nuw i8, ptr %0, i64 120
  store i8 %29, ptr %30, align 8, !tbaa !35
  %31 = getelementptr inbounds nuw i8, ptr %1, i64 124
  %32 = load i32, ptr %31, align 4, !tbaa !36
  %33 = getelementptr inbounds nuw i8, ptr %0, i64 124
  store i32 %32, ptr %33, align 4, !tbaa !36
  %34 = getelementptr inbounds nuw i8, ptr %0, i64 129
  store i8 0, ptr %34, align 1, !tbaa !37
  %35 = getelementptr inbounds nuw i8, ptr %1, i64 130
  %36 = load i8, ptr %35, align 2, !tbaa !38
  %37 = getelementptr inbounds nuw i8, ptr %0, i64 130
  store i8 %36, ptr %37, align 2, !tbaa !38
  %38 = tail call noundef ptr @_ZN6icu_777UMemorynwEm(i64 noundef 40) #12
  %39 = icmp eq ptr %38, null
  br i1 %39, label %41, label %40

40:                                               ; preds = %21
  invoke void @_ZN6icu_777UVectorC1ER10UErrorCode(ptr noundef nonnull align 8 dereferenceable(40) %38, ptr noundef nonnull align 4 dereferenceable(4) %2)
          to label %41 unwind label %61

41:                                               ; preds = %40, %21
  %42 = getelementptr inbounds nuw i8, ptr %0, i64 136
  store ptr %38, ptr %42, align 8, !tbaa !28
  %43 = tail call noundef ptr @_ZN6icu_777UMemorynwEm(i64 noundef 40) #12
  %44 = icmp eq ptr %43, null
  br i1 %44, label %46, label %45

45:                                               ; preds = %41
  invoke void @_ZN6icu_777UVectorC1ER10UErrorCode(ptr noundef nonnull align 8 dereferenceable(40) %43, ptr noundef nonnull align 4 dereferenceable(4) %2)
          to label %46 unwind label %63

46:                                               ; preds = %45, %41
  %47 = getelementptr inbounds nuw i8, ptr %0, i64 144
  store ptr %43, ptr %47, align 8, !tbaa !29
  %48 = tail call noundef ptr @_ZN6icu_777UMemorynwEm(i64 noundef 40) #12
  %49 = icmp eq ptr %48, null
  br i1 %49, label %51, label %50

50:                                               ; preds = %46
  invoke void @_ZN6icu_777UVectorC1ER10UErrorCode(ptr noundef nonnull align 8 dereferenceable(40) %48, ptr noundef nonnull align 4 dereferenceable(4) %2)
          to label %51 unwind label %65

51:                                               ; preds = %50, %46
  %52 = getelementptr inbounds nuw i8, ptr %0, i64 152
  store ptr %48, ptr %52, align 8, !tbaa !30
  %53 = load i32, ptr %2, align 4, !tbaa !13
  %54 = icmp sgt i32 %53, 0
  br i1 %54, label %67, label %55

55:                                               ; preds = %51
  %56 = load ptr, ptr %42, align 8, !tbaa !28
  %57 = icmp eq ptr %56, null
  %58 = load ptr, ptr %47, align 8
  %59 = icmp eq ptr %58, null
  %or.cond = select i1 %57, i1 true, i1 %59
  %or.cond31 = or i1 %49, %or.cond
  br i1 %or.cond31, label %60, label %67

60:                                               ; preds = %55
  store i32 7, ptr %2, align 4, !tbaa !13
  br label %67

61:                                               ; preds = %40
  %62 = landingpad { ptr, i32 }
          cleanup
  tail call void @_ZN6icu_777UMemorydlEPv(ptr noundef nonnull %38) #12
  br label %68

63:                                               ; preds = %45
  %64 = landingpad { ptr, i32 }
          cleanup
  tail call void @_ZN6icu_777UMemorydlEPv(ptr noundef nonnull %43) #12
  br label %68

65:                                               ; preds = %50
  %66 = landingpad { ptr, i32 }
          cleanup
  tail call void @_ZN6icu_777UMemorydlEPv(ptr noundef nonnull %48) #12
  br label %68

67:                                               ; preds = %55, %3, %60, %51
  ret void

68:                                               ; preds = %65, %63, %61, %8
  %.pn = phi { ptr, i32 } [ %66, %65 ], [ %64, %63 ], [ %62, %61 ], [ %9, %8 ]
  tail call void @_ZN6icu_7713UnicodeStringD1Ev(ptr noundef nonnull align 8 dereferenceable(64) %4) #12
  resume { ptr, i32 } %.pn
}